; Function Attrs: mustprogress uwtable
define void @_ZN2cv4sqrtERKNS_11_InputArrayERKNS_12_OutputArrayE(ptr noundef nonnull align 8 dereferenceable(24) %0, ptr noundef nonnull align 8 dereferenceable(24) %1) local_unnamed_addr #3 personality ptr @__gxx_personality_v0 {
  %3 = alloca %"class.cv::utils::trace::details::Region", align 8
  call void @llvm.lifetime.start.p0(i64 16, ptr nonnull %3) #27
  call void @_ZN2cv5utils5trace7details6RegionC1ERKNS3_21LocationStaticStorageE(ptr noundef nonnull align 8 dereferenceable(12) %3, ptr noundef nonnull align 8 dereferenceable(32) @_ZZN2cv4sqrtERKNS_11_InputArrayERKNS_12_OutputArrayEE26__cv_trace_location_fn1407)
  invoke void @_ZN2cv3powERKNS_11_InputArrayEdRKNS_12_OutputArrayE(ptr noundef nonnull align 8 dereferenceable(24) %0, double noundef 5.000000e-01, ptr noundef nonnull align 8 dereferenceable(24) %1)
          to label %4 unwind label %11

4:                                                ; preds = %2
  %5 = getelementptr inbounds nuw i8, ptr %3, i64 8
  %6 = load i32, ptr %5, align 8, !tbaa !3
  %.not.i = icmp eq i32 %6, 0
  br i1 %.not.i, label %_ZN2cv5utils5trace7details6RegionD2Ev.exit, label %7

7:                                                ; preds = %4
  invoke void @_ZN2cv5utils5trace7details6Region7destroyEv(ptr noundef nonnull align 8 dereferenceable(12) %3)
          to label %_ZN2cv5utils5trace7details6RegionD2Ev.exit unwind label %8

8:                                                ; preds = %7
  %9 = landingpad { ptr, i32 }
          catch ptr null
  %10 = extractvalue { ptr, i32 } %9, 0
  call void @__clang_call_terminate(ptr %10) #28
  unreachable

_ZN2cv5utils5trace7details6RegionD2Ev.exit:       ; preds = %4, %7
  call void @llvm.lifetime.end.p0(i64 16, ptr nonnull %3) #27
  ret void

11:                                               ; preds = %2
  %12 = landingpad { ptr, i32 }
          cleanup
  call void @_ZN2cv5utils5trace7details6RegionD2Ev(ptr noundef nonnull align 8 dereferenceable(12) %3) #27
  call void @llvm.lifetime.end.p0(i64 16, ptr nonnull %3) #27
  resume { ptr, i32 } %12
}